target datalayout = "e-m:e-p270:32:32-p271:32:32-p272:64:64-i64:64-i128:128-f80:128-n8:16:32:64-S128"
target triple = "x86_64-pc-linux-gnu"

; Function Attrs: nounwind uwtable
define i32 @lzma_upack_esi_50(ptr noundef %0, i32 noundef %1, i32 noundef %2, ptr noundef %3, ptr noundef %4, ptr noundef %5, ptr noundef %6, i32 noundef %7) #0 {
  %9 = alloca i32, align 4
  %10 = alloca ptr, align 8
  %11 = alloca i32, align 4
  %12 = alloca i32, align 4
  %13 = alloca ptr, align 8
  %14 = alloca ptr, align 8
  %15 = alloca ptr, align 8
  %16 = alloca ptr, align 8
  %17 = alloca i32, align 4
  %18 = alloca i32, align 4
  %19 = alloca i32, align 4
  store ptr %0, ptr %10, align 8
  store i32 %1, ptr %11, align 4
  store i32 %2, ptr %12, align 4
  store ptr %3, ptr %13, align 8
  store ptr %4, ptr %14, align 8
  store ptr %5, ptr %15, align 8
  store ptr %6, ptr %16, align 8
  store i32 %7, ptr %17, align 4
  %20 = load i32, ptr %11, align 4
  store i32 %20, ptr %18, align 4
  br label %21

21:                                               ; preds = %43, %8
  %22 = load ptr, ptr %14, align 8
  %23 = load i32, ptr %18, align 4
  %24 = shl i32 %23, 2
  %25 = zext i32 %24 to i64
  %26 = getelementptr inbounds i8, ptr %22, i64 %25
  %27 = load ptr, ptr %13, align 8
  store ptr %26, ptr %27, align 8
  %28 = load ptr, ptr %10, align 8
  %29 = load ptr, ptr %13, align 8
  %30 = load ptr, ptr %29, align 8
  %31 = load ptr, ptr %16, align 8
  %32 = load i32, ptr %17, align 4
  %33 = call i32 @lzma_upack_esi_00(ptr noundef %28, ptr noundef %30, ptr noundef %31, i32 noundef %32)
  store i32 %33, ptr %19, align 4
  %34 = icmp eq i32 %33, -1
  br i1 %34, label %35, label %36

35:                                               ; preds = %21
  store i32 -1, ptr %9, align 4
  br label %52

36:                                               ; preds = %21
  %37 = load i32, ptr %18, align 4
  %38 = load i32, ptr %18, align 4
  %39 = add i32 %38, %37
  store i32 %39, ptr %18, align 4
  %40 = load i32, ptr %19, align 4
  %41 = load i32, ptr %18, align 4
  %42 = add i32 %41, %40
  store i32 %42, ptr %18, align 4
  br label %43

43:                                               ; preds = %36
  %44 = load i32, ptr %18, align 4
  %45 = load i32, ptr %12, align 4
  %46 = icmp ult i32 %44, %45
  br i1 %46, label %21, label %47

47:                                               ; preds = %43
  %48 = load i32, ptr %18, align 4
  %49 = load i32, ptr %12, align 4
  %50 = sub i32 %48, %49
  %51 = load ptr, ptr %15, align 8
  store i32 %50, ptr %51, align 4
  store i32 0, ptr %9, align 4
  br label %52

52:                                               ; preds = %47, %35
  %53 = load i32, ptr %9, align 4
  ret i32 %53
}