; Function Attrs: nounwind uwtable
define noundef i32 @lzma_upack_esi_50(ptr nocapture noundef %0, i32 noundef %1, i32 noundef %2, ptr nocapture noundef writeonly %3, ptr noundef %4, ptr nocapture noundef writeonly %5, ptr noundef %6, i32 noundef %7) local_unnamed_addr #0 {
  br label %9

9:                                                ; preds = %15, %8
  %.017 = phi i32 [ %1, %8 ], [ %17, %15 ]
  %10 = shl i32 %.017, 2
  %11 = zext i32 %10 to i64
  %12 = getelementptr inbounds i8, ptr %4, i64 %11
  store ptr %12, ptr %3, align 8
  %13 = tail call i32 @lzma_upack_esi_00(ptr noundef %0, ptr noundef %12, ptr noundef %6, i32 noundef %7), !range !4
  %14 = icmp eq i32 %13, -1
  br i1 %14, label %.loopexit, label %15

15:                                               ; preds = %9
  %16 = shl i32 %.017, 1
  %17 = add nuw i32 %13, %16
  %18 = icmp ult i32 %17, %2
  br i1 %18, label %9, label %19

19:                                               ; preds = %15
  %20 = sub i32 %17, %2
  store i32 %20, ptr %5, align 4
  br label %.loopexit

.loopexit:                                        ; preds = %9, %19
  %.0 = phi i32 [ 0, %19 ], [ -1, %9 ]
  ret i32 %.0
}